target datalayout = "e-m:e-p270:32:32-p271:32:32-p272:64:64-i64:64-i128:128-f80:128-n8:16:32:64-S128"
target triple = "x86_64-pc-linux-gnu"

%"struct.url::Parsed" = type { %"struct.url::Component", %"struct.url::Component", %"struct.url::Component", %"struct.url::Component", %"struct.url::Component", %"struct.url::Component", %"struct.url::Component", %"struct.url::Component", ptr }
%"struct.url::Component" = type { i32, i32 }

; Function Attrs: mustprogress nounwind uwtable
define linkonce_odr void @_ZN3url9ComponentC2Eii(ptr noundef nonnull align 4 dereferenceable(8) %0, i32 noundef %1, i32 noundef %2) unnamed_addr #1 comdat align 2 {
  %4 = alloca ptr, align 8
  %5 = alloca i32, align 4
  %6 = alloca i32, align 4
  store ptr %0, ptr %4, align 8, !tbaa !12
  store i32 %1, ptr %5, align 4, !tbaa !17
  store i32 %2, ptr %6, align 4, !tbaa !17
  %7 = load ptr, ptr %4, align 8
  %8 = getelementptr inbounds nuw %"struct.url::Component", ptr %7, i32 0, i32 0
  %9 = load i32, ptr %5, align 4, !tbaa !17
  store i32 %9, ptr %8, align 4, !tbaa !14
  %10 = getelementptr inbounds nuw %"struct.url::Component", ptr %7, i32 0, i32 1
  %11 = load i32, ptr %6, align 4, !tbaa !17
  store i32 %11, ptr %10, align 4, !tbaa !15
  ret void
}

; Function Attrs: inlinehint mustprogress uwtable
define linkonce_odr i64 @_ZN3url9MakeRangeEii(i32 noundef %0, i32 noundef %1) #7 comdat {
  %3 = alloca %"struct.url::Component", align 4
  %4 = alloca i32, align 4
  %5 = alloca i32, align 4
  store i32 %0, ptr %4, align 4, !tbaa !17
  store i32 %1, ptr %5, align 4, !tbaa !17
  %6 = load i32, ptr %4, align 4, !tbaa !17
  %7 = load i32, ptr %5, align 4, !tbaa !17
  %8 = load i32, ptr %4, align 4, !tbaa !17
  %9 = sub nsw i32 %7, %8
  call void @_ZN3url9ComponentC2Eii(ptr noundef nonnull align 4 dereferenceable(8) %3, i32 noundef %6, i32 noundef %9)
  %10 = load i64, ptr %3, align 4
  ret i64 %10
}

; Function Attrs: inlinehint mustprogress nounwind uwtable
define linkonce_odr noundef zeroext i1 @_ZN3url17ShouldTrimFromURLEt(i16 noundef zeroext %0) #5 comdat {
  %2 = alloca i16, align 2
  store i16 %0, ptr %2, align 2, !tbaa !40
  %3 = load i16, ptr %2, align 2, !tbaa !40
  %4 = zext i16 %3 to i32
  %5 = icmp sle i32 %4, 32
  ret i1 %5
}

; Function Attrs: mustprogress nounwind uwtable
define linkonce_odr void @_ZN3url9Component5resetEv(ptr noundef nonnull align 4 dereferenceable(8) %0) #1 comdat align 2 {
  %2 = alloca ptr, align 8
  store ptr %0, ptr %2, align 8, !tbaa !12
  %3 = load ptr, ptr %2, align 8
  %4 = getelementptr inbounds nuw %"struct.url::Component", ptr %3, i32 0, i32 0
  store i32 0, ptr %4, align 4, !tbaa !14
  %5 = getelementptr inbounds nuw %"struct.url::Component", ptr %3, i32 0, i32 1
  store i32 -1, ptr %5, align 4, !tbaa !15
  ret void
}

; Function Attrs: mustprogress nounwind uwtable
define linkonce_odr noundef i32 @_ZNK3url9Component3endEv(ptr noundef nonnull align 4 dereferenceable(8) %0) #1 comdat align 2 {
  %2 = alloca ptr, align 8
  store ptr %0, ptr %2, align 8, !tbaa !12
  %3 = load ptr, ptr %2, align 8
  %4 = getelementptr inbounds nuw %"struct.url::Component", ptr %3, i32 0, i32 0
  %5 = load i32, ptr %4, align 4, !tbaa !14
  %6 = getelementptr inbounds nuw %"struct.url::Component", ptr %3, i32 0, i32 1
  %7 = load i32, ptr %6, align 4, !tbaa !15
  %8 = add nsw i32 %5, %7
  ret i32 %8
}

; Function Attrs: mustprogress uwtable
define internal noundef zeroext i1 @_ZN3url12_GLOBAL__N_115DoExtractSchemeIcEEbPKT_iPNS_9ComponentE(ptr noundef %0, i32 noundef %1, ptr noundef %2) #0 {
  %4 = alloca i1, align 1
  %5 = alloca ptr, align 8
  %6 = alloca i32, align 4
  %7 = alloca ptr, align 8
  %8 = alloca i32, align 4
  %9 = alloca i32, align 4
  %10 = alloca i32, align 4
  %11 = alloca %"struct.url::Component", align 4
  store ptr %0, ptr %5, align 8, !tbaa !32
  store i32 %1, ptr %6, align 4, !tbaa !17
  store ptr %2, ptr %7, align 8, !tbaa !12
  call void @llvm.lifetime.start.p0(i64 4, ptr %8) #13
  store i32 0, ptr %8, align 4, !tbaa !17
  br label %12

12:                                               ; preds = %26, %3
  %13 = load i32, ptr %8, align 4, !tbaa !17
  %14 = load i32, ptr %6, align 4, !tbaa !17
  %15 = icmp slt i32 %13, %14
  br i1 %15, label %16, label %24

16:                                               ; preds = %12
  %17 = load ptr, ptr %5, align 8, !tbaa !32
  %18 = load i32, ptr %8, align 4, !tbaa !17
  %19 = sext i32 %18 to i64
  %20 = getelementptr inbounds i8, ptr %17, i64 %19
  %21 = load i8, ptr %20, align 1, !tbaa !34
  %22 = sext i8 %21 to i16
  %23 = call noundef zeroext i1 @_ZN3url17ShouldTrimFromURLEt(i16 noundef zeroext %22)
  br label %24

24:                                               ; preds = %16, %12
  %25 = phi i1 [ false, %12 ], [ %23, %16 ]
  br i1 %25, label %26, label %29

26:                                               ; preds = %24
  %27 = load i32, ptr %8, align 4, !tbaa !17
  %28 = add nsw i32 %27, 1
  store i32 %28, ptr %8, align 4, !tbaa !17
  br label %12, !llvm.loop !35

29:                                               ; preds = %24
  %30 = load i32, ptr %8, align 4, !tbaa !17
  %31 = load i32, ptr %6, align 4, !tbaa !17
  %32 = icmp eq i32 %30, %31
  br i1 %32, label %33, label %34

33:                                               ; preds = %29
  store i1 false, ptr %4, align 1
  store i32 1, ptr %9, align 4
  br label %61

34:                                               ; preds = %29
  call void @llvm.lifetime.start.p0(i64 4, ptr %10) #13
  %35 = load i32, ptr %8, align 4, !tbaa !17
  store i32 %35, ptr %10, align 4, !tbaa !17
  br label %36

36:                                               ; preds = %55, %34
  %37 = load i32, ptr %10, align 4, !tbaa !17
  %38 = load i32, ptr %6, align 4, !tbaa !17
  %39 = icmp slt i32 %37, %38
  br i1 %39, label %41, label %40

40:                                               ; preds = %36
  store i32 4, ptr %9, align 4
  br label %58

41:                                               ; preds = %36
  %42 = load ptr, ptr %5, align 8, !tbaa !32
  %43 = load i32, ptr %10, align 4, !tbaa !17
  %44 = sext i32 %43 to i64
  %45 = getelementptr inbounds i8, ptr %42, i64 %44
  %46 = load i8, ptr %45, align 1, !tbaa !34
  %47 = sext i8 %46 to i32
  %48 = icmp eq i32 %47, 58
  br i1 %48, label %49, label %54

49:                                               ; preds = %41
  call void @llvm.lifetime.start.p0(i64 8, ptr %11) #13
  %50 = load i32, ptr %8, align 4, !tbaa !17
  %51 = load i32, ptr %10, align 4, !tbaa !17
  %52 = call i64 @_ZN3url9MakeRangeEii(i32 noundef %50, i32 noundef %51)
  store i64 %52, ptr %11, align 4
  %53 = load ptr, ptr %7, align 8, !tbaa !12
  call void @llvm.memcpy.p0.p0.i64(ptr align 4 %53, ptr align 4 %11, i64 8, i1 false), !tbaa.struct !16
  call void @llvm.lifetime.end.p0(i64 8, ptr %11) #13
  store i1 true, ptr %4, align 1
  store i32 1, ptr %9, align 4
  br label %58

54:                                               ; preds = %41
  br label %55

55:                                               ; preds = %54
  %56 = load i32, ptr %10, align 4, !tbaa !17
  %57 = add nsw i32 %56, 1
  store i32 %57, ptr %10, align 4, !tbaa !17
  br label %36, !llvm.loop !37

58:                                               ; preds = %49, %40
  call void @llvm.lifetime.end.p0(i64 4, ptr %10) #13
  %59 = load i32, ptr %9, align 4
  switch i32 %59, label %61 [
    i32 4, label %60
  ]

60:                                               ; preds = %58
  store i1 false, ptr %4, align 1
  store i32 1, ptr %9, align 4
  br label %61

61:                                               ; preds = %60, %58, %33
  call void @llvm.lifetime.end.p0(i64 4, ptr %8) #13
  %62 = load i1, ptr %4, align 1
  ret i1 %62
}

; Function Attrs: inlinehint mustprogress nounwind uwtable
define linkonce_odr void @_ZN3url7TrimURLIcEEvPKT_PiS4_b(ptr noundef %0, ptr noundef %1, ptr noundef %2, i1 noundef zeroext %3) #5 comdat {
  %5 = alloca ptr, align 8
  %6 = alloca ptr, align 8
  %7 = alloca ptr, align 8
  %8 = alloca i8, align 1
  store ptr %0, ptr %5, align 8, !tbaa !32
  store ptr %1, ptr %6, align 8, !tbaa !67
  store ptr %2, ptr %7, align 8, !tbaa !67
  %9 = zext i1 %3 to i8
  store i8 %9, ptr %8, align 1, !tbaa !20
  br label %10

10:                                               ; preds = %27, %4
  %11 = load ptr, ptr %6, align 8, !tbaa !67
  %12 = load i32, ptr %11, align 4, !tbaa !17
  %13 = load ptr, ptr %7, align 8, !tbaa !67
  %14 = load i32, ptr %13, align 4, !tbaa !17
  %15 = icmp slt i32 %12, %14
  br i1 %15, label %16, label %25

16:                                               ; preds = %10
  %17 = load ptr, ptr %5, align 8, !tbaa !32
  %18 = load ptr, ptr %6, align 8, !tbaa !67
  %19 = load i32, ptr %18, align 4, !tbaa !17
  %20 = sext i32 %19 to i64
  %21 = getelementptr inbounds i8, ptr %17, i64 %20
  %22 = load i8, ptr %21, align 1, !tbaa !34
  %23 = sext i8 %22 to i16
  %24 = call noundef zeroext i1 @_ZN3url17ShouldTrimFromURLEt(i16 noundef zeroext %23)
  br label %25

25:                                               ; preds = %16, %10
  %26 = phi i1 [ false, %10 ], [ %24, %16 ]
  br i1 %26, label %27, label %31

27:                                               ; preds = %25
  %28 = load ptr, ptr %6, align 8, !tbaa !67
  %29 = load i32, ptr %28, align 4, !tbaa !17
  %30 = add nsw i32 %29, 1
  store i32 %30, ptr %28, align 4, !tbaa !17
  br label %10, !llvm.loop !69

31:                                               ; preds = %25
  %32 = load i8, ptr %8, align 1, !tbaa !20, !range !26, !noundef !27
  %33 = trunc i8 %32 to i1
  br i1 %33, label %34, label %58

34:                                               ; preds = %31
  br label %35

35:                                               ; preds = %53, %34
  %36 = load ptr, ptr %7, align 8, !tbaa !67
  %37 = load i32, ptr %36, align 4, !tbaa !17
  %38 = load ptr, ptr %6, align 8, !tbaa !67
  %39 = load i32, ptr %38, align 4, !tbaa !17
  %40 = icmp sgt i32 %37, %39
  br i1 %40, label %41, label %51

41:                                               ; preds = %35
  %42 = load ptr, ptr %5, align 8, !tbaa !32
  %43 = load ptr, ptr %7, align 8, !tbaa !67
  %44 = load i32, ptr %43, align 4, !tbaa !17
  %45 = sub nsw i32 %44, 1
  %46 = sext i32 %45 to i64
  %47 = getelementptr inbounds i8, ptr %42, i64 %46
  %48 = load i8, ptr %47, align 1, !tbaa !34
  %49 = sext i8 %48 to i16
  %50 = call noundef zeroext i1 @_ZN3url17ShouldTrimFromURLEt(i16 noundef zeroext %49)
  br label %51

51:                                               ; preds = %41, %35
  %52 = phi i1 [ false, %35 ], [ %50, %41 ]
  br i1 %52, label %53, label %57

53:                                               ; preds = %51
  %54 = load ptr, ptr %7, align 8, !tbaa !67
  %55 = load i32, ptr %54, align 4, !tbaa !17
  %56 = add nsw i32 %55, -1
  store i32 %56, ptr %54, align 4, !tbaa !17
  br label %35, !llvm.loop !70

57:                                               ; preds = %51
  br label %58

58:                                               ; preds = %57, %31
  ret void
}

; Function Attrs: mustprogress uwtable
define internal void @_ZN3url12_GLOBAL__N_118DoParseStandardURLIcEEvPKT_iPNS_6ParsedE(ptr noundef %0, i32 noundef %1, ptr noundef %2) #0 {
  %4 = alloca ptr, align 8
  %5 = alloca i32, align 4
  %6 = alloca ptr, align 8
  %7 = alloca i32, align 4
  %8 = alloca i32, align 4
  store ptr %0, ptr %4, align 8, !tbaa !32
  store i32 %1, ptr %5, align 4, !tbaa !17
  store ptr %2, ptr %6, align 8, !tbaa !3
  call void @llvm.lifetime.start.p0(i64 4, ptr %7) #13
  store i32 0, ptr %7, align 4, !tbaa !17
  %9 = load ptr, ptr %4, align 8, !tbaa !32
  call void @_ZN3url7TrimURLIcEEvPKT_PiS4_b(ptr noundef %9, ptr noundef %7, ptr noundef %5, i1 noundef zeroext true)
  call void @llvm.lifetime.start.p0(i64 4, ptr %8) #13
  %10 = load ptr, ptr %4, align 8, !tbaa !32
  %11 = load i32, ptr %5, align 4, !tbaa !17
  %12 = load ptr, ptr %6, align 8, !tbaa !3
  %13 = getelementptr inbounds nuw %"struct.url::Parsed", ptr %12, i32 0, i32 0
  %14 = call noundef zeroext i1 @_ZN3url12_GLOBAL__N_115DoExtractSchemeIcEEbPKT_iPNS_9ComponentE(ptr noundef %10, i32 noundef %11, ptr noundef %13)
  br i1 %14, label %15, label %20

15:                                               ; preds = %3
  %16 = load ptr, ptr %6, align 8, !tbaa !3
  %17 = getelementptr inbounds nuw %"struct.url::Parsed", ptr %16, i32 0, i32 0
  %18 = call noundef i32 @_ZNK3url9Component3endEv(ptr noundef nonnull align 4 dereferenceable(8) %17)
  %19 = add nsw i32 %18, 1
  store i32 %19, ptr %8, align 4, !tbaa !17
  br label %24

20:                                               ; preds = %3
  %21 = load ptr, ptr %6, align 8, !tbaa !3
  %22 = getelementptr inbounds nuw %"struct.url::Parsed", ptr %21, i32 0, i32 0
  call void @_ZN3url9Component5resetEv(ptr noundef nonnull align 4 dereferenceable(8) %22)
  %23 = load i32, ptr %7, align 4, !tbaa !17
  store i32 %23, ptr %8, align 4, !tbaa !17
  br label %24

24:                                               ; preds = %20, %15
  %25 = load ptr, ptr %4, align 8, !tbaa !32
  %26 = load i32, ptr %5, align 4, !tbaa !17
  %27 = load i32, ptr %8, align 4, !tbaa !17
  %28 = load ptr, ptr %6, align 8, !tbaa !3
  call void @_ZN3url12_GLOBAL__N_118DoParseAfterSchemeIcEEvPKT_iiPNS_6ParsedE(ptr noundef %25, i32 noundef %26, i32 noundef %27, ptr noundef %28)
  call void @llvm.lifetime.end.p0(i64 4, ptr %8) #13
  call void @llvm.lifetime.end.p0(i64 4, ptr %7) #13
  ret void
}